target datalayout = "e-m:e-p270:32:32-p271:32:32-p272:64:64-i64:64-i128:128-f80:128-n8:16:32:64-S128"
target triple = "x86_64-pc-linux-gnu"

%struct.SUNHashMap_ = type { i32, i32, ptr }
%struct.SUNHashMapKeyValue_ = type { ptr, ptr }

; Function Attrs: nounwind uwtable
define i32 @SUNHashMap_Iterate(ptr noundef %0, i32 noundef %1, ptr noundef %2, ptr noundef %3) #0 {
  %5 = alloca i32, align 4
  %6 = alloca ptr, align 8
  %7 = alloca i32, align 4
  %8 = alloca ptr, align 8
  %9 = alloca ptr, align 8
  %10 = alloca i32, align 4
  %11 = alloca i32, align 4
  %12 = alloca i32, align 4
  store ptr %0, ptr %6, align 8, !tbaa !10
  store i32 %1, ptr %7, align 4, !tbaa !3
  store ptr %2, ptr %8, align 8, !tbaa !19
  store ptr %3, ptr %9, align 8, !tbaa !19
  call void @llvm.lifetime.start.p0(i64 4, ptr %10) #6
  %13 = load ptr, ptr %6, align 8, !tbaa !10
  %14 = icmp eq ptr %13, null
  br i1 %14, label %18, label %15

15:                                               ; preds = %4
  %16 = load ptr, ptr %8, align 8, !tbaa !19
  %17 = icmp eq ptr %16, null
  br i1 %17, label %18, label %19

18:                                               ; preds = %15, %4
  store i32 -2, ptr %5, align 4
  store i32 1, ptr %11, align 4
  br label %59

19:                                               ; preds = %15
  %20 = load i32, ptr %7, align 4, !tbaa !3
  store i32 %20, ptr %10, align 4, !tbaa !3
  br label %21

21:                                               ; preds = %52, %19
  %22 = load i32, ptr %10, align 4, !tbaa !3
  %23 = load ptr, ptr %6, align 8, !tbaa !10
  %24 = getelementptr inbounds nuw %struct.SUNHashMap_, ptr %23, i32 0, i32 1
  %25 = load i32, ptr %24, align 4, !tbaa !15
  %26 = icmp slt i32 %22, %25
  br i1 %26, label %27, label %55

27:                                               ; preds = %21
  call void @llvm.lifetime.start.p0(i64 4, ptr %12) #6
  %28 = load ptr, ptr %8, align 8, !tbaa !19
  %29 = load i32, ptr %10, align 4, !tbaa !3
  %30 = load ptr, ptr %6, align 8, !tbaa !10
  %31 = getelementptr inbounds nuw %struct.SUNHashMap_, ptr %30, i32 0, i32 2
  %32 = load ptr, ptr %31, align 8, !tbaa !16
  %33 = load i32, ptr %10, align 4, !tbaa !3
  %34 = sext i32 %33 to i64
  %35 = getelementptr inbounds ptr, ptr %32, i64 %34
  %36 = load ptr, ptr %35, align 8, !tbaa !17
  %37 = load ptr, ptr %9, align 8, !tbaa !19
  %38 = call i32 %28(i32 noundef %29, ptr noundef %36, ptr noundef %37)
  store i32 %38, ptr %12, align 4, !tbaa !3
  %39 = load i32, ptr %12, align 4, !tbaa !3
  %40 = icmp sge i32 %39, 0
  br i1 %40, label %41, label %43

41:                                               ; preds = %27
  %42 = load i32, ptr %12, align 4, !tbaa !3
  store i32 %42, ptr %5, align 4
  store i32 1, ptr %11, align 4
  br label %49

43:                                               ; preds = %27
  %44 = load i32, ptr %12, align 4, !tbaa !3
  %45 = icmp slt i32 %44, -1
  br i1 %45, label %46, label %48

46:                                               ; preds = %43
  %47 = load i32, ptr %12, align 4, !tbaa !3
  store i32 %47, ptr %5, align 4
  store i32 1, ptr %11, align 4
  br label %49

48:                                               ; preds = %43
  store i32 0, ptr %11, align 4
  br label %49

49:                                               ; preds = %48, %46, %41
  call void @llvm.lifetime.end.p0(i64 4, ptr %12) #6
  %50 = load i32, ptr %11, align 4
  switch i32 %50, label %59 [
    i32 0, label %51
  ]

51:                                               ; preds = %49
  br label %52

52:                                               ; preds = %51
  %53 = load i32, ptr %10, align 4, !tbaa !3
  %54 = add nsw i32 %53, 1
  store i32 %54, ptr %10, align 4, !tbaa !3
  br label %21

55:                                               ; preds = %21
  %56 = load ptr, ptr %6, align 8, !tbaa !10
  %57 = getelementptr inbounds nuw %struct.SUNHashMap_, ptr %56, i32 0, i32 1
  %58 = load i32, ptr %57, align 4, !tbaa !15
  store i32 %58, ptr %5, align 4
  store i32 1, ptr %11, align 4
  br label %59

59:                                               ; preds = %55, %49, %18
  call void @llvm.lifetime.end.p0(i64 4, ptr %10) #6
  %60 = load i32, ptr %5, align 4
  ret i32 %60
}

; Function Attrs: nounwind uwtable
define internal i64 @fnv1a_hash(ptr noundef %0) #0 {
  %2 = alloca ptr, align 8
  %3 = alloca i64, align 8
  %4 = alloca i8, align 1
  store ptr %0, ptr %2, align 8, !tbaa !23
  call void @llvm.lifetime.start.p0(i64 8, ptr %3) #6
  store i64 1099511628211, ptr %3, align 8, !tbaa !25
  call void @llvm.lifetime.start.p0(i64 1, ptr %4) #6
  br label %5

5:                                                ; preds = %10, %1
  %6 = load ptr, ptr %2, align 8, !tbaa !23
  %7 = getelementptr inbounds nuw i8, ptr %6, i32 1
  store ptr %7, ptr %2, align 8, !tbaa !23
  %8 = load i8, ptr %6, align 1, !tbaa !27
  store i8 %8, ptr %4, align 1, !tbaa !27
  %9 = icmp ne i8 %8, 0
  br i1 %9, label %10, label %16

10:                                               ; preds = %5
  %11 = load i64, ptr %3, align 8, !tbaa !25
  %12 = load i8, ptr %4, align 1, !tbaa !27
  %13 = sext i8 %12 to i64
  %14 = xor i64 %11, %13
  %15 = mul i64 %14, -3750763034362895579
  store i64 %15, ptr %3, align 8, !tbaa !25
  br label %5

16:                                               ; preds = %5
  %17 = load i64, ptr %3, align 8, !tbaa !25
  call void @llvm.lifetime.end.p0(i64 1, ptr %4) #6
  call void @llvm.lifetime.end.p0(i64 8, ptr %3) #6
  ret i64 %17
}

; Function Attrs: nounwind uwtable
define i32 @SUNHashMap_GetValue(ptr noundef %0, ptr noundef %1, ptr noundef %2) #0 {
  %4 = alloca i32, align 4
  %5 = alloca ptr, align 8
  %6 = alloca ptr, align 8
  %7 = alloca ptr, align 8
  %8 = alloca i32, align 4
  %9 = alloca i32, align 4
  %10 = alloca i32, align 4
  store ptr %0, ptr %5, align 8, !tbaa !10
  store ptr %1, ptr %6, align 8, !tbaa !23
  store ptr %2, ptr %7, align 8, !tbaa !19
  call void @llvm.lifetime.start.p0(i64 4, ptr %8) #6
  call void @llvm.lifetime.start.p0(i64 4, ptr %9) #6
  %11 = load ptr, ptr %5, align 8, !tbaa !10
  %12 = icmp eq ptr %11, null
  br i1 %12, label %19, label %13

13:                                               ; preds = %3
  %14 = load ptr, ptr %6, align 8, !tbaa !23
  %15 = icmp eq ptr %14, null
  br i1 %15, label %19, label %16

16:                                               ; preds = %13
  %17 = load ptr, ptr %7, align 8, !tbaa !19
  %18 = icmp eq ptr %17, null
  br i1 %18, label %19, label %20

19:                                               ; preds = %16, %13, %3
  store i32 -1, ptr %4, align 4
  store i32 1, ptr %10, align 4
  br label %79

20:                                               ; preds = %16
  %21 = load ptr, ptr %6, align 8, !tbaa !23
  %22 = call i64 @fnv1a_hash(ptr noundef %21)
  %23 = load ptr, ptr %5, align 8, !tbaa !10
  %24 = getelementptr inbounds nuw %struct.SUNHashMap_, ptr %23, i32 0, i32 1
  %25 = load i32, ptr %24, align 4, !tbaa !15
  %26 = sext i32 %25 to i64
  %27 = urem i64 %22, %26
  %28 = trunc i64 %27 to i32
  store i32 %28, ptr %8, align 4, !tbaa !3
  %29 = load ptr, ptr %5, align 8, !tbaa !10
  %30 = getelementptr inbounds nuw %struct.SUNHashMap_, ptr %29, i32 0, i32 2
  %31 = load ptr, ptr %30, align 8, !tbaa !16
  %32 = load i32, ptr %8, align 4, !tbaa !3
  %33 = sext i32 %32 to i64
  %34 = getelementptr inbounds ptr, ptr %31, i64 %33
  %35 = load ptr, ptr %34, align 8, !tbaa !17
  %36 = icmp eq ptr %35, null
  br i1 %36, label %37, label %38

37:                                               ; preds = %20
  store i32 -2, ptr %4, align 4
  store i32 1, ptr %10, align 4
  br label %79

38:                                               ; preds = %20
  %39 = load ptr, ptr %5, align 8, !tbaa !10
  %40 = getelementptr inbounds nuw %struct.SUNHashMap_, ptr %39, i32 0, i32 2
  %41 = load ptr, ptr %40, align 8, !tbaa !16
  %42 = load i32, ptr %8, align 4, !tbaa !3
  %43 = sext i32 %42 to i64
  %44 = getelementptr inbounds ptr, ptr %41, i64 %43
  %45 = load ptr, ptr %44, align 8, !tbaa !17
  %46 = getelementptr inbounds nuw %struct.SUNHashMapKeyValue_, ptr %45, i32 0, i32 0
  %47 = load ptr, ptr %46, align 8, !tbaa !24
  %48 = load ptr, ptr %6, align 8, !tbaa !23
  %49 = call i32 @strcmp(ptr noundef %47, ptr noundef %48) #8
  %50 = icmp ne i32 %49, 0
  br i1 %50, label %51, label %68

51:                                               ; preds = %38
  %52 = load ptr, ptr %5, align 8, !tbaa !10
  %53 = load i32, ptr %8, align 4, !tbaa !3
  %54 = add nsw i32 %53, 1
  %55 = load ptr, ptr %6, align 8, !tbaa !23
  %56 = call i32 @SUNHashMap_Iterate(ptr noundef %52, i32 noundef %54, ptr noundef @sunHashMapLinearProbeGet, ptr noundef %55)
  store i32 %56, ptr %9, align 4, !tbaa !3
  %57 = load i32, ptr %9, align 4, !tbaa !3
  %58 = icmp slt i32 %57, 0
  br i1 %58, label %59, label %60

59:                                               ; preds = %51
  store i32 -1, ptr %4, align 4
  store i32 1, ptr %10, align 4
  br label %79

60:                                               ; preds = %51
  %61 = load i32, ptr %9, align 4, !tbaa !3
  %62 = load ptr, ptr %5, align 8, !tbaa !10
  %63 = getelementptr inbounds nuw %struct.SUNHashMap_, ptr %62, i32 0, i32 1
  %64 = load i32, ptr %63, align 4, !tbaa !15
  %65 = icmp eq i32 %61, %64
  br i1 %65, label %66, label %67

66:                                               ; preds = %60
  store i32 -2, ptr %4, align 4
  store i32 1, ptr %10, align 4
  br label %79

67:                                               ; preds = %60
  br label %68

68:                                               ; preds = %67, %38
  %69 = load ptr, ptr %5, align 8, !tbaa !10
  %70 = getelementptr inbounds nuw %struct.SUNHashMap_, ptr %69, i32 0, i32 2
  %71 = load ptr, ptr %70, align 8, !tbaa !16
  %72 = load i32, ptr %8, align 4, !tbaa !3
  %73 = sext i32 %72 to i64
  %74 = getelementptr inbounds ptr, ptr %71, i64 %73
  %75 = load ptr, ptr %74, align 8, !tbaa !17
  %76 = getelementptr inbounds nuw %struct.SUNHashMapKeyValue_, ptr %75, i32 0, i32 1
  %77 = load ptr, ptr %76, align 8, !tbaa !20
  %78 = load ptr, ptr %7, align 8, !tbaa !19
  store ptr %77, ptr %78, align 8, !tbaa !19
  store i32 0, ptr %4, align 4
  store i32 1, ptr %10, align 4
  br label %79

79:                                               ; preds = %68, %66, %59, %37, %19
  call void @llvm.lifetime.end.p0(i64 4, ptr %9) #6
  call void @llvm.lifetime.end.p0(i64 4, ptr %8) #6
  %80 = load i32, ptr %4, align 4
  ret i32 %80
}