; Function Attrs: nofree nounwind memory(read, argmem: readwrite, inaccessiblemem: none) uwtable
define range(i32 -2, 1) i32 @SUNHashMap_GetValue(ptr noundef readonly captures(address_is_null) %0, ptr noundef readonly captures(address_is_null) %1, ptr noundef writeonly captures(address_is_null) %2) local_unnamed_addr #5 {
  %4 = icmp eq ptr %0, null
  %5 = icmp eq ptr %1, null
  %or.cond = or i1 %4, %5
  %6 = icmp eq ptr %2, null
  %or.cond3 = or i1 %or.cond, %6
  br i1 %or.cond3, label %47, label %7

7:                                                ; preds = %3
  %8 = load i8, ptr %1, align 1, !tbaa !19
  %.not5.i = icmp eq i8 %8, 0
  br i1 %.not5.i, label %fnv1a_hash.exit, label %.lr.ph.i

.lr.ph.i:                                         ; preds = %7, %.lr.ph.i
  %9 = phi i8 [ %14, %.lr.ph.i ], [ %8, %7 ]
  %.07.i = phi ptr [ %10, %.lr.ph.i ], [ %1, %7 ]
  %.036.i = phi i64 [ %13, %.lr.ph.i ], [ 1099511628211, %7 ]
  %10 = getelementptr inbounds nuw i8, ptr %.07.i, i64 1
  %11 = sext i8 %9 to i64
  %12 = xor i64 %.036.i, %11
  %13 = mul i64 %12, -3750763034362895579
  %14 = load i8, ptr %10, align 1, !tbaa !19
  %.not.i = icmp eq i8 %14, 0
  br i1 %.not.i, label %fnv1a_hash.exit, label %.lr.ph.i

fnv1a_hash.exit:                                  ; preds = %.lr.ph.i, %7
  %.03.lcssa.i = phi i64 [ 1099511628211, %7 ], [ %13, %.lr.ph.i ]
  %15 = getelementptr inbounds nuw i8, ptr %0, i64 4
  %16 = load i32, ptr %15, align 4, !tbaa !12
  %17 = sext i32 %16 to i64
  %18 = urem i64 %.03.lcssa.i, %17
  %19 = trunc i64 %18 to i32
  %20 = getelementptr inbounds nuw i8, ptr %0, i64 8
  %21 = load ptr, ptr %20, align 8, !tbaa !13
  %sext = shl i64 %18, 32
  %22 = ashr exact i64 %sext, 29
  %23 = getelementptr inbounds i8, ptr %21, i64 %22
  %24 = load ptr, ptr %23, align 8, !tbaa !14
  %25 = icmp eq ptr %24, null
  br i1 %25, label %47, label %26

26:                                               ; preds = %fnv1a_hash.exit
  %27 = load ptr, ptr %24, align 8, !tbaa !20
  %28 = tail call i32 @strcmp(ptr noundef nonnull dereferenceable(1) %27, ptr noundef nonnull dereferenceable(1) %1) #11
  %.not = icmp eq i32 %28, 0
  br i1 %.not, label %44, label %.preheader.i

.preheader.i:                                     ; preds = %26
  %29 = add nsw i32 %19, 1
  %30 = icmp slt i32 %29, %16
  br i1 %30, label %.lr.ph.i27, label %SUNHashMap_Iterate.exit

.lr.ph.i27:                                       ; preds = %.preheader.i
  %31 = sext i32 %29 to i64
  br label %33

sunHashMapLinearProbeGet.exit.thread:             ; preds = %37, %33
  %indvars.iv.next.i = add nsw i64 %indvars.iv.i, 1
  %32 = icmp slt i64 %indvars.iv.next.i, %17
  br i1 %32, label %33, label %SUNHashMap_Iterate.exit

33:                                               ; preds = %.lr.ph.i27, %sunHashMapLinearProbeGet.exit.thread
  %indvars.iv.i = phi i64 [ %31, %.lr.ph.i27 ], [ %indvars.iv.next.i, %sunHashMapLinearProbeGet.exit.thread ]
  %34 = getelementptr inbounds ptr, ptr %21, i64 %indvars.iv.i
  %35 = load ptr, ptr %34, align 8, !tbaa !14
  %36 = icmp eq ptr %35, null
  br i1 %36, label %sunHashMapLinearProbeGet.exit.thread, label %37

37:                                               ; preds = %33
  %38 = load ptr, ptr %35, align 8, !tbaa !20
  %39 = tail call i32 @strcmp(ptr noundef nonnull dereferenceable(1) %38, ptr noundef nonnull readonly dereferenceable(1) %1) #11
  %.not.i29 = icmp ne i32 %39, 0
  %.not.i28 = icmp eq i64 %indvars.iv.i, -1
  %or.cond33 = or i1 %.not.i28, %.not.i29
  br i1 %or.cond33, label %sunHashMapLinearProbeGet.exit.thread, label %SUNHashMap_Iterate.exit.loopexit.split.loop.exit34

SUNHashMap_Iterate.exit.loopexit.split.loop.exit34: ; preds = %37
  %40 = trunc nsw i64 %indvars.iv.i to i32
  br label %SUNHashMap_Iterate.exit

SUNHashMap_Iterate.exit:                          ; preds = %sunHashMapLinearProbeGet.exit.thread, %SUNHashMap_Iterate.exit.loopexit.split.loop.exit34, %.preheader.i
  %.0.i = phi i32 [ %16, %.preheader.i ], [ %40, %SUNHashMap_Iterate.exit.loopexit.split.loop.exit34 ], [ %16, %sunHashMapLinearProbeGet.exit.thread ]
  %41 = icmp slt i32 %.0.i, 0
  br i1 %41, label %47, label %42

42:                                               ; preds = %SUNHashMap_Iterate.exit
  %43 = icmp eq i32 %.0.i, %16
  br i1 %43, label %47, label %44

44:                                               ; preds = %42, %26
  %45 = getelementptr inbounds nuw i8, ptr %24, i64 8
  %46 = load ptr, ptr %45, align 8, !tbaa !16
  store ptr %46, ptr %2, align 8, !tbaa !21
  br label %47

47:                                               ; preds = %42, %SUNHashMap_Iterate.exit, %fnv1a_hash.exit, %3, %44
  %.0 = phi i32 [ 0, %44 ], [ -1, %3 ], [ -2, %fnv1a_hash.exit ], [ -1, %SUNHashMap_Iterate.exit ], [ -2, %42 ]
  ret i32 %.0
}